target datalayout = "e-m:e-p270:32:32-p271:32:32-p272:64:64-i64:64-i128:128-f80:128-n8:16:32:64-S128"
target triple = "x86_64-pc-linux-gnu"

%struct.Float4X4 = type { %union.anon }
%union.anon = type { %struct.anon }
%struct.anon = type { float, float, float, float, float, float, float, float, float, float, float, float, float, float, float, float }
%struct.SDL_Rect = type { i32, i32, i32, i32 }
%struct.VULKAN_RenderData = type { ptr, ptr, i8, ptr, i8, ptr, %struct.VkPhysicalDeviceProperties, %struct.VkPhysicalDeviceMemoryProperties, %struct.VkPhysicalDeviceFeatures, ptr, ptr, ptr, i8, i32, i32, ptr, ptr, ptr, i32, ptr, ptr, %struct.VkSurfaceCapabilitiesKHR, ptr, i8, i32, i32, ptr, [2 x ptr], ptr, [3 x ptr], [3 x ptr], ptr, ptr, [256 x %struct.VULKAN_Buffer], %struct.VULKAN_VertexShaderConstants, ptr, ptr, ptr, ptr, i32, i32, [8 x ptr], ptr, ptr, i32, i32, i32, ptr, ptr, i8, i8, i8, i32, i32, i32, %struct.VkSurfaceFormatKHR, %struct.VkExtent2D, i32, i32, ptr, ptr, ptr, ptr, ptr, ptr, i32, ptr, ptr, i32, i32, ptr, i32, i32, ptr, i8, i8, %struct.SDL_Rect, %struct.SDL_Rect, i32, i8, %struct.Float4X4, %struct.VkComponentMapping, i32, i8 }
%struct.VkPhysicalDeviceProperties = type { i32, i32, i32, i32, i32, [256 x i8], [16 x i8], %struct.VkPhysicalDeviceLimits, %struct.VkPhysicalDeviceSparseProperties }
%struct.VkPhysicalDeviceLimits = type { i32, i32, i32, i32, i32, i32, i32, i32, i32, i32, i32, i64, i64, i32, i32, i32, i32, i32, i32, i32, i32, i32, i32, i32, i32, i32, i32, i32, i32, i32, i32, i32, i32, i32, i32, i32, i32, i32, i32, i32, i32, i32, i32, i32, i32, i32, i32, i32, i32, i32, i32, i32, [3 x i32], i32, [3 x i32], i32, i32, i32, i32, i32, float, float, i32, [2 x i32], [2 x float], i32, i64, i64, i64, i64, i32, i32, i32, i32, float, float, i32, i32, i32, i32, i32, i32, i32, i32, i32, i32, i32, i32, i32, i32, i32, i32, float, i32, i32, i32, i32, [2 x float], [2 x float], float, float, i32, i32, i64, i64, i64 }
%struct.VkPhysicalDeviceSparseProperties = type { i32, i32, i32, i32, i32 }
%struct.VkPhysicalDeviceMemoryProperties = type { i32, [32 x %struct.VkMemoryType], i32, [16 x %struct.VkMemoryHeap] }
%struct.VkMemoryType = type { i32, i32 }
%struct.VkMemoryHeap = type { i64, i32 }
%struct.VkPhysicalDeviceFeatures = type { i32, i32, i32, i32, i32, i32, i32, i32, i32, i32, i32, i32, i32, i32, i32, i32, i32, i32, i32, i32, i32, i32, i32, i32, i32, i32, i32, i32, i32, i32, i32, i32, i32, i32, i32, i32, i32, i32, i32, i32, i32, i32, i32, i32, i32, i32, i32, i32, i32, i32, i32, i32, i32, i32, i32 }
%struct.VkSurfaceCapabilitiesKHR = type { i32, i32, %struct.VkExtent2D, %struct.VkExtent2D, %struct.VkExtent2D, i32, i32, i32, i32, i32 }
%struct.VULKAN_Buffer = type { ptr, ptr, i64, ptr }
%struct.VULKAN_VertexShaderConstants = type { %struct.Float4X4, %struct.Float4X4 }
%struct.VkSurfaceFormatKHR = type { i32, i32 }
%struct.VkExtent2D = type { i32, i32 }
%struct.VkComponentMapping = type { i32, i32, i32, i32 }

@.str.7 = private unnamed_addr constant [24 x i8] c"SDL_RENDER_VULKAN_DEBUG\00", align 1
@.str.8 = private unnamed_addr constant [7 x i8] c"%s: %s\00", align 1
@vkGetPhysicalDeviceSurfaceFormatsKHR = internal global ptr null, align 8
@.str.264 = private unnamed_addr constant [39 x i8] c"vkGetPhysicalDeviceSurfaceFormatsKHR()\00", align 1

; Function Attrs: nounwind uwtable
define internal i32 @VULKAN_GetSurfaceFormats(ptr noundef %0) #0 {
  %2 = alloca i32, align 4
  %3 = alloca ptr, align 8
  %4 = alloca i32, align 4
  %5 = alloca i32, align 4
  store ptr %0, ptr %3, align 8
  call void @llvm.lifetime.start.p0(i64 4, ptr %4) #6
  %6 = load ptr, ptr @vkGetPhysicalDeviceSurfaceFormatsKHR, align 8
  %7 = load ptr, ptr %3, align 8
  %8 = getelementptr inbounds nuw %struct.VULKAN_RenderData, ptr %7, i32 0, i32 5
  %9 = load ptr, ptr %8, align 8
  %10 = load ptr, ptr %3, align 8
  %11 = getelementptr inbounds nuw %struct.VULKAN_RenderData, ptr %10, i32 0, i32 3
  %12 = load ptr, ptr %11, align 8
  %13 = load ptr, ptr %3, align 8
  %14 = getelementptr inbounds nuw %struct.VULKAN_RenderData, ptr %13, i32 0, i32 53
  %15 = call i32 %6(ptr noundef %9, ptr noundef %12, ptr noundef %14, ptr noundef null)
  store i32 %15, ptr %4, align 4
  %16 = load i32, ptr %4, align 4
  %17 = icmp ne i32 %16, 0
  br i1 %17, label %18, label %30

18:                                               ; preds = %1
  %19 = load ptr, ptr %3, align 8
  %20 = getelementptr inbounds nuw %struct.VULKAN_RenderData, ptr %19, i32 0, i32 53
  store i32 0, ptr %20, align 8
  %21 = call zeroext i1 @SDL_GetHintBoolean_REAL(ptr noundef @.str.7, i1 noundef zeroext false)
  br i1 %21, label %22, label %25

22:                                               ; preds = %18
  %23 = load i32, ptr %4, align 4
  %24 = call ptr @SDL_Vulkan_GetResultString(i32 noundef %23)
  call void (i32, ptr, ...) @SDL_LogError_REAL(i32 noundef 6, ptr noundef @.str.8, ptr noundef @.str.264, ptr noundef %24)
  call void @llvm.debugtrap()
  br label %25

25:                                               ; preds = %22, %18
  %26 = load i32, ptr %4, align 4
  %27 = call ptr @SDL_Vulkan_GetResultString(i32 noundef %26)
  %28 = call zeroext i1 (ptr, ...) @SDL_SetError_REAL(ptr noundef @.str.8, ptr noundef @.str.264, ptr noundef %27)
  %29 = load i32, ptr %4, align 4
  store i32 %29, ptr %2, align 4
  store i32 1, ptr %5, align 4
  br label %84

30:                                               ; preds = %1
  %31 = load ptr, ptr %3, align 8
  %32 = getelementptr inbounds nuw %struct.VULKAN_RenderData, ptr %31, i32 0, i32 53
  %33 = load i32, ptr %32, align 8
  %34 = load ptr, ptr %3, align 8
  %35 = getelementptr inbounds nuw %struct.VULKAN_RenderData, ptr %34, i32 0, i32 52
  %36 = load i32, ptr %35, align 4
  %37 = icmp ugt i32 %33, %36
  br i1 %37, label %38, label %55

38:                                               ; preds = %30
  %39 = load ptr, ptr %3, align 8
  %40 = getelementptr inbounds nuw %struct.VULKAN_RenderData, ptr %39, i32 0, i32 53
  %41 = load i32, ptr %40, align 8
  %42 = load ptr, ptr %3, align 8
  %43 = getelementptr inbounds nuw %struct.VULKAN_RenderData, ptr %42, i32 0, i32 52
  store i32 %41, ptr %43, align 4
  %44 = load ptr, ptr %3, align 8
  %45 = getelementptr inbounds nuw %struct.VULKAN_RenderData, ptr %44, i32 0, i32 22
  %46 = load ptr, ptr %45, align 8
  call void @SDL_free_REAL(ptr noundef %46)
  %47 = load ptr, ptr %3, align 8
  %48 = getelementptr inbounds nuw %struct.VULKAN_RenderData, ptr %47, i32 0, i32 52
  %49 = load i32, ptr %48, align 4
  %50 = zext i32 %49 to i64
  %51 = mul i64 8, %50
  %52 = call noalias ptr @SDL_malloc_REAL(i64 noundef %51)
  %53 = load ptr, ptr %3, align 8
  %54 = getelementptr inbounds nuw %struct.VULKAN_RenderData, ptr %53, i32 0, i32 22
  store ptr %52, ptr %54, align 8
  br label %55

55:                                               ; preds = %38, %30
  %56 = load ptr, ptr @vkGetPhysicalDeviceSurfaceFormatsKHR, align 8
  %57 = load ptr, ptr %3, align 8
  %58 = getelementptr inbounds nuw %struct.VULKAN_RenderData, ptr %57, i32 0, i32 5
  %59 = load ptr, ptr %58, align 8
  %60 = load ptr, ptr %3, align 8
  %61 = getelementptr inbounds nuw %struct.VULKAN_RenderData, ptr %60, i32 0, i32 3
  %62 = load ptr, ptr %61, align 8
  %63 = load ptr, ptr %3, align 8
  %64 = getelementptr inbounds nuw %struct.VULKAN_RenderData, ptr %63, i32 0, i32 53
  %65 = load ptr, ptr %3, align 8
  %66 = getelementptr inbounds nuw %struct.VULKAN_RenderData, ptr %65, i32 0, i32 22
  %67 = load ptr, ptr %66, align 8
  %68 = call i32 %56(ptr noundef %59, ptr noundef %62, ptr noundef %64, ptr noundef %67)
  store i32 %68, ptr %4, align 4
  %69 = load i32, ptr %4, align 4
  %70 = icmp ne i32 %69, 0
  br i1 %70, label %71, label %83

71:                                               ; preds = %55
  %72 = load ptr, ptr %3, align 8
  %73 = getelementptr inbounds nuw %struct.VULKAN_RenderData, ptr %72, i32 0, i32 53
  store i32 0, ptr %73, align 8
  %74 = call zeroext i1 @SDL_GetHintBoolean_REAL(ptr noundef @.str.7, i1 noundef zeroext false)
  br i1 %74, label %75, label %78

75:                                               ; preds = %71
  %76 = load i32, ptr %4, align 4
  %77 = call ptr @SDL_Vulkan_GetResultString(i32 noundef %76)
  call void (i32, ptr, ...) @SDL_LogError_REAL(i32 noundef 6, ptr noundef @.str.8, ptr noundef @.str.264, ptr noundef %77)
  call void @llvm.debugtrap()
  br label %78

78:                                               ; preds = %75, %71
  %79 = load i32, ptr %4, align 4
  %80 = call ptr @SDL_Vulkan_GetResultString(i32 noundef %79)
  %81 = call zeroext i1 (ptr, ...) @SDL_SetError_REAL(ptr noundef @.str.8, ptr noundef @.str.264, ptr noundef %80)
  %82 = load i32, ptr %4, align 4
  store i32 %82, ptr %2, align 4
  store i32 1, ptr %5, align 4
  br label %84

83:                                               ; preds = %55
  store i32 0, ptr %2, align 4
  store i32 1, ptr %5, align 4
  br label %84

84:                                               ; preds = %83, %78, %25
  call void @llvm.lifetime.end.p0(i64 4, ptr %4) #6
  %85 = load i32, ptr %2, align 4
  ret i32 %85
}