; Function Attrs: nounwind uwtable
define internal fastcc noundef i32 @VULKAN_GetSurfaceFormats(ptr noundef %0) unnamed_addr #0 {
  %2 = load ptr, ptr @vkGetPhysicalDeviceSurfaceFormatsKHR, align 8
  %3 = getelementptr inbounds nuw i8, ptr %0, i64 40
  %4 = load ptr, ptr %3, align 8
  %5 = getelementptr inbounds nuw i8, ptr %0, i64 24
  %6 = load ptr, ptr %5, align 8
  %7 = getelementptr inbounds nuw i8, ptr %0, i64 10360
  %8 = tail call i32 %2(ptr noundef %4, ptr noundef %6, ptr noundef nonnull %7, ptr noundef null) #8
  %.not = icmp eq i32 %8, 0
  br i1 %.not, label %11, label %9

9:                                                ; preds = %1
  store i32 0, ptr %7, align 8
  %10 = tail call zeroext i1 @SDL_GetHintBoolean_REAL(ptr noundef nonnull @.str.7, i1 noundef zeroext false) #8
  br i1 %10, label %.sink.split.sink.split, label %.sink.split

11:                                               ; preds = %1
  %12 = load i32, ptr %7, align 8
  %13 = getelementptr inbounds nuw i8, ptr %0, i64 10356
  %14 = load i32, ptr %13, align 4
  %15 = icmp ugt i32 %12, %14
  br i1 %15, label %16, label %._crit_edge

._crit_edge:                                      ; preds = %11
  %.phi.trans.insert = getelementptr inbounds nuw i8, ptr %0, i64 1760
  %.pre = load ptr, ptr %.phi.trans.insert, align 8
  br label %23

16:                                               ; preds = %11
  store i32 %12, ptr %13, align 4
  %17 = getelementptr inbounds nuw i8, ptr %0, i64 1760
  %18 = load ptr, ptr %17, align 8
  tail call void @SDL_free_REAL(ptr noundef %18) #8
  %19 = load i32, ptr %13, align 4
  %20 = zext i32 %19 to i64
  %21 = shl nuw nsw i64 %20, 3
  %22 = tail call noalias ptr @SDL_malloc_REAL(i64 noundef %21) #8
  store ptr %22, ptr %17, align 8
  br label %23

23:                                               ; preds = %._crit_edge, %16
  %24 = phi ptr [ %.pre, %._crit_edge ], [ %22, %16 ]
  %25 = load ptr, ptr @vkGetPhysicalDeviceSurfaceFormatsKHR, align 8
  %26 = load ptr, ptr %3, align 8
  %27 = load ptr, ptr %5, align 8
  %28 = tail call i32 %25(ptr noundef %26, ptr noundef %27, ptr noundef nonnull %7, ptr noundef %24) #8
  %.not27 = icmp eq i32 %28, 0
  br i1 %.not27, label %34, label %29

29:                                               ; preds = %23
  store i32 0, ptr %7, align 8
  %30 = tail call zeroext i1 @SDL_GetHintBoolean_REAL(ptr noundef nonnull @.str.7, i1 noundef zeroext false) #8
  br i1 %30, label %.sink.split.sink.split, label %.sink.split

.sink.split.sink.split:                           ; preds = %29, %9
  %.sink29 = phi i32 [ %8, %9 ], [ %28, %29 ]
  %31 = tail call ptr @SDL_Vulkan_GetResultString(i32 noundef %.sink29) #8
  tail call void (i32, ptr, ...) @SDL_LogError_REAL(i32 noundef 6, ptr noundef nonnull @.str.8, ptr noundef nonnull @.str.264, ptr noundef %31) #8
  tail call void @llvm.debugtrap()
  br label %.sink.split

.sink.split:                                      ; preds = %.sink.split.sink.split, %29, %9
  %.sink28 = phi i32 [ %8, %9 ], [ %28, %29 ], [ %.sink29, %.sink.split.sink.split ]
  %32 = tail call ptr @SDL_Vulkan_GetResultString(i32 noundef %.sink28) #8
  %33 = tail call zeroext i1 (ptr, ...) @SDL_SetError_REAL(ptr noundef nonnull @.str.8, ptr noundef nonnull @.str.264, ptr noundef %32) #8
  br label %34

34:                                               ; preds = %.sink.split, %23
  %.0 = phi i32 [ 0, %23 ], [ %.sink28, %.sink.split ]
  ret i32 %.0
}